; Function Attrs: nounwind uwtable
define internal noundef i32 @thread_peak_reset_ctl(ptr noundef %tsd, ptr nocapture readnone %mib, i64 %miblen, ptr noundef readnone %oldp, ptr noundef readnone %oldlenp, ptr noundef readnone %newp, i64 noundef %newlen) #0 {
entry:
  %cmp = icmp ne ptr %oldp, null
  %cmp1 = icmp ne ptr %oldlenp, null
  %or.cond = or i1 %cmp, %cmp1
  %cmp3 = icmp ne ptr %newp, null
  %or.cond1 = or i1 %or.cond, %cmp3
  %cmp5 = icmp ne i64 %newlen, 0
  %or.cond2 = or i1 %or.cond1, %cmp5
  br i1 %or.cond2, label %label_return, label %do.end

do.end:                                           ; preds = %entry
  tail call void @peak_event_zero(ptr noundef %tsd) #14
  br label %label_return

label_return:                                     ; preds = %entry, %do.end
  %ret.0 = phi i32 [ 0, %do.end ], [ 1, %entry ]
  ret i32 %ret.0
}